target datalayout = "e-m:e-p270:32:32-p271:32:32-p272:64:64-i64:64-i128:128-f80:128-n8:16:32:64-S128"
target triple = "x86_64-pc-linux-gnu"

%struct.mbedtls_ssl_context = type { ptr, i32, i32, i32, i32, i32, ptr, ptr, ptr, ptr, ptr, ptr, ptr, ptr, ptr, ptr, ptr, ptr, ptr, ptr, ptr, ptr, ptr, ptr, ptr, ptr, ptr, ptr, ptr, ptr, ptr, ptr, ptr, i32, i64, i64, i16, i64, i64, i64, i64, i32, i32, i8, i8, i32, i8, ptr, ptr, ptr, ptr, ptr, ptr, ptr, i32, i64, i64, [8 x i8], i16, ptr, ptr, ptr, i64, i32, i64, [12 x i8], [12 x i8], [32 x i8], i8, i8, ptr, ptr, %union.mbedtls_ssl_user_data_t }
%union.mbedtls_ssl_user_data_t = type { i64 }
%struct.mbedtls_ssl_session = type { i8, i8, i8, i32, i64, i32, i64, [32 x i8], [48 x i8], ptr, i32, ptr, i64, i32, i64, i32, i8, i8, [48 x i8], ptr, i64, i32, %struct.mbedtls_ssl_tls13_application_secrets }
%struct.mbedtls_ssl_tls13_application_secrets = type { [64 x i8], [64 x i8], [64 x i8], [64 x i8] }
%struct.mbedtls_ssl_handshake_params = type { i8, i8, i8, i8, i8, i32, i8, i8, i8, i8, ptr, ptr, ptr, ptr, ptr, i8, i8, i8, i8, i16, i16, [20 x i16], ptr, ptr, %struct.mbedtls_dhm_context, %struct.mbedtls_ecdh_context, i16, i64, i32, i8, [1024 x i8], i64, ptr, ptr, i64, i16, ptr, ptr, ptr, ptr, %struct.anon, ptr, i16, i8, i32, i32, i32, ptr, ptr, ptr, i32, ptr, [8 x i8], i8, [32 x i8], i8, i16, %struct.mbedtls_md_context_t, %struct.mbedtls_md_context_t, i16, i8, %union.anon.1, [64 x i8], [1076 x i8], i64, i32, i32, i8, ptr, ptr, %union.anon.4, %struct.mbedtls_ssl_tls13_handshake_secrets, ptr, i64, ptr }
%struct.mbedtls_dhm_context = type { %struct.mbedtls_mpi, %struct.mbedtls_mpi, %struct.mbedtls_mpi, %struct.mbedtls_mpi, %struct.mbedtls_mpi, %struct.mbedtls_mpi, %struct.mbedtls_mpi, %struct.mbedtls_mpi, %struct.mbedtls_mpi, %struct.mbedtls_mpi }
%struct.mbedtls_mpi = type { ptr, i16, i16 }
%struct.mbedtls_ecdh_context = type { i8, i32, i32, %union.anon }
%union.anon = type { %struct.mbedtls_ecdh_context_mbed }
%struct.mbedtls_ecdh_context_mbed = type { %struct.mbedtls_ecp_group, %struct.mbedtls_mpi, %struct.mbedtls_ecp_point, %struct.mbedtls_ecp_point, %struct.mbedtls_mpi }
%struct.mbedtls_ecp_group = type { i32, %struct.mbedtls_mpi, %struct.mbedtls_mpi, %struct.mbedtls_mpi, %struct.mbedtls_ecp_point, %struct.mbedtls_mpi, i64, i64, i32, ptr, ptr, ptr, ptr, ptr, i64 }
%struct.mbedtls_ecp_point = type { %struct.mbedtls_mpi, %struct.mbedtls_mpi, %struct.mbedtls_mpi }
%struct.anon = type { i64, i8, [4 x %struct.mbedtls_ssl_hs_buffer], %struct.anon.0 }
%struct.mbedtls_ssl_hs_buffer = type { i8, ptr, i64 }
%struct.anon.0 = type { ptr, i64, i32 }
%struct.mbedtls_md_context_t = type { ptr, ptr, ptr }
%union.anon.1 = type { %struct.anon.2 }
%struct.anon.2 = type { i8, [64 x i8], i64 }
%union.anon.4 = type { [64 x i8] }
%struct.mbedtls_ssl_tls13_handshake_secrets = type { [64 x i8], [64 x i8] }

@.str = private unnamed_addr constant [130 x i8] c"generated/home/dtcxzyw/WorkSpace/Projects/compilers/llvm-opt-benchmark/bench/lief/bench_build/mbed_src/library/ssl_tls13_server.c\00", align 1
@.str.1 = private unnamed_addr constant [27 x i8] c"tls13 server state: %s(%d)\00", align 1
@.str.2 = private unnamed_addr constant [31 x i8] c"ssl_tls13_process_client_hello\00", align 1
@.str.3 = private unnamed_addr constant [36 x i8] c"ssl_tls13_write_hello_retry_request\00", align 1
@.str.4 = private unnamed_addr constant [37 x i8] c"ssl_tls13_write_encrypted_extensions\00", align 1
@.str.5 = private unnamed_addr constant [30 x i8] c"skip parse certificate verify\00", align 1
@.str.6 = private unnamed_addr constant [36 x i8] c"ssl_tls13_write_new_session_ticket \00", align 1
@.str.7 = private unnamed_addr constant [17 x i8] c"invalid state %d\00", align 1

; Function Attrs: nounwind uwtable
define internal i32 @ssl_tls13_write_certificate_verify(ptr noundef %0) #0 {
  %2 = alloca i32, align 4
  %3 = alloca ptr, align 8
  %4 = alloca i32, align 4
  %5 = alloca i32, align 4
  store ptr %0, ptr %3, align 8, !tbaa !3
  call void @llvm.lifetime.start.p0(i64 4, ptr %4) #10
  %6 = load ptr, ptr %3, align 8, !tbaa !3
  %7 = call i32 @mbedtls_ssl_tls13_write_certificate_verify(ptr noundef %6)
  store i32 %7, ptr %4, align 4, !tbaa !8
  %8 = load i32, ptr %4, align 4, !tbaa !8
  %9 = icmp ne i32 %8, 0
  br i1 %9, label %10, label %12

10:                                               ; preds = %1
  %11 = load i32, ptr %4, align 4, !tbaa !8
  store i32 %11, ptr %2, align 4
  store i32 1, ptr %5, align 4
  br label %14

12:                                               ; preds = %1
  %13 = load ptr, ptr %3, align 8, !tbaa !3
  call void @mbedtls_ssl_handshake_set_state(ptr noundef %13, i32 noundef 13)
  store i32 0, ptr %2, align 4
  store i32 1, ptr %5, align 4
  br label %14

14:                                               ; preds = %12, %10
  call void @llvm.lifetime.end.p0(i64 4, ptr %4) #10
  %15 = load i32, ptr %2, align 4
  ret i32 %15
}

; Function Attrs: inlinehint nounwind uwtable
define internal void @mbedtls_ssl_handshake_set_state(ptr noundef %0, i32 noundef %1) #3 {
  %3 = alloca ptr, align 8
  %4 = alloca i32, align 4
  store ptr %0, ptr %3, align 8, !tbaa !3
  store i32 %1, ptr %4, align 4, !tbaa !8
  %5 = load i32, ptr %4, align 4, !tbaa !8
  %6 = load ptr, ptr %3, align 8, !tbaa !3
  %7 = getelementptr inbounds nuw %struct.mbedtls_ssl_context, ptr %6, i32 0, i32 1
  store i32 %5, ptr %7, align 8, !tbaa !10
  ret void
}

; Function Attrs: nounwind uwtable
define hidden i32 @mbedtls_ssl_tls13_handshake_server_step(ptr noundef %0) #0 {
  %2 = alloca i32, align 4
  %3 = alloca ptr, align 8
  %4 = alloca i32, align 4
  %5 = alloca i32, align 4
  store ptr %0, ptr %3, align 8, !tbaa !3
  call void @llvm.lifetime.start.p0(i64 4, ptr %4) #10
  store i32 -110, ptr %4, align 4, !tbaa !8
  %6 = load ptr, ptr %3, align 8, !tbaa !3
  %7 = getelementptr inbounds nuw %struct.mbedtls_ssl_context, ptr %6, i32 0, i32 1
  %8 = load i32, ptr %7, align 8, !tbaa !10
  %9 = icmp eq i32 %8, 27
  br i1 %9, label %15, label %10

10:                                               ; preds = %1
  %11 = load ptr, ptr %3, align 8, !tbaa !3
  %12 = getelementptr inbounds nuw %struct.mbedtls_ssl_context, ptr %11, i32 0, i32 16
  %13 = load ptr, ptr %12, align 8, !tbaa !19
  %14 = icmp eq ptr %13, null
  br i1 %14, label %15, label %16

15:                                               ; preds = %10, %1
  store i32 -28928, ptr %2, align 4
  store i32 1, ptr %5, align 4
  br label %152

16:                                               ; preds = %10
  %17 = load ptr, ptr %3, align 8, !tbaa !3
  %18 = load ptr, ptr %3, align 8, !tbaa !3
  %19 = getelementptr inbounds nuw %struct.mbedtls_ssl_context, ptr %18, i32 0, i32 1
  %20 = load i32, ptr %19, align 8, !tbaa !10
  %21 = call ptr @mbedtls_ssl_states_str(i32 noundef %20)
  %22 = load ptr, ptr %3, align 8, !tbaa !3
  %23 = getelementptr inbounds nuw %struct.mbedtls_ssl_context, ptr %22, i32 0, i32 1
  %24 = load i32, ptr %23, align 8, !tbaa !10
  call void (ptr, i32, ptr, i32, ptr, ...) @mbedtls_debug_print_msg(ptr noundef %17, i32 noundef 2, ptr noundef @.str, i32 noundef 3462, ptr noundef @.str.1, ptr noundef %21, i32 noundef %24)
  %25 = load ptr, ptr %3, align 8, !tbaa !3
  %26 = getelementptr inbounds nuw %struct.mbedtls_ssl_context, ptr %25, i32 0, i32 1
  %27 = load i32, ptr %26, align 8, !tbaa !10
  switch i32 %27, label %145 [
    i32 0, label %28
    i32 1, label %30
    i32 18, label %39
    i32 2, label %49
    i32 19, label %52
    i32 5, label %62
    i32 3, label %65
    i32 9, label %68
    i32 26, label %71
    i32 24, label %79
    i32 13, label %87
    i32 11, label %90
    i32 15, label %93
    i32 7, label %96
    i32 21, label %115
    i32 28, label %123
    i32 29, label %132
  ]

28:                                               ; preds = %16
  %29 = load ptr, ptr %3, align 8, !tbaa !3
  call void @mbedtls_ssl_handshake_set_state(ptr noundef %29, i32 noundef 1)
  store i32 0, ptr %4, align 4, !tbaa !8
  br label %150

30:                                               ; preds = %16
  %31 = load ptr, ptr %3, align 8, !tbaa !3
  %32 = call i32 @ssl_tls13_process_client_hello(ptr noundef %31)
  store i32 %32, ptr %4, align 4, !tbaa !8
  %33 = load i32, ptr %4, align 4, !tbaa !8
  %34 = icmp ne i32 %33, 0
  br i1 %34, label %35, label %38

35:                                               ; preds = %30
  %36 = load ptr, ptr %3, align 8, !tbaa !3
  %37 = load i32, ptr %4, align 4, !tbaa !8
  call void @mbedtls_debug_print_ret(ptr noundef %36, i32 noundef 1, ptr noundef @.str, i32 noundef 3474, ptr noundef @.str.2, i32 noundef %37)
  br label %38

38:                                               ; preds = %35, %30
  br label %150

39:                                               ; preds = %16
  %40 = load ptr, ptr %3, align 8, !tbaa !3
  %41 = call i32 @ssl_tls13_write_hello_retry_request(ptr noundef %40)
  store i32 %41, ptr %4, align 4, !tbaa !8
  %42 = load i32, ptr %4, align 4, !tbaa !8
  %43 = icmp ne i32 %42, 0
  br i1 %43, label %44, label %48

44:                                               ; preds = %39
  %45 = load ptr, ptr %3, align 8, !tbaa !3
  %46 = load i32, ptr %4, align 4, !tbaa !8
  call void @mbedtls_debug_print_ret(ptr noundef %45, i32 noundef 1, ptr noundef @.str, i32 noundef 3481, ptr noundef @.str.3, i32 noundef %46)
  %47 = load i32, ptr %4, align 4, !tbaa !8
  store i32 %47, ptr %2, align 4
  store i32 1, ptr %5, align 4
  br label %152

48:                                               ; preds = %39
  br label %150

49:                                               ; preds = %16
  %50 = load ptr, ptr %3, align 8, !tbaa !3
  %51 = call i32 @ssl_tls13_write_server_hello(ptr noundef %50)
  store i32 %51, ptr %4, align 4, !tbaa !8
  br label %150

52:                                               ; preds = %16
  %53 = load ptr, ptr %3, align 8, !tbaa !3
  %54 = call i32 @ssl_tls13_write_encrypted_extensions(ptr noundef %53)
  store i32 %54, ptr %4, align 4, !tbaa !8
  %55 = load i32, ptr %4, align 4, !tbaa !8
  %56 = icmp ne i32 %55, 0
  br i1 %56, label %57, label %61

57:                                               ; preds = %52
  %58 = load ptr, ptr %3, align 8, !tbaa !3
  %59 = load i32, ptr %4, align 4, !tbaa !8
  call void @mbedtls_debug_print_ret(ptr noundef %58, i32 noundef 1, ptr noundef @.str, i32 noundef 3493, ptr noundef @.str.4, i32 noundef %59)
  %60 = load i32, ptr %4, align 4, !tbaa !8
  store i32 %60, ptr %2, align 4
  store i32 1, ptr %5, align 4
  br label %152

61:                                               ; preds = %52
  br label %150

62:                                               ; preds = %16
  %63 = load ptr, ptr %3, align 8, !tbaa !3
  %64 = call i32 @ssl_tls13_write_certificate_request(ptr noundef %63)
  store i32 %64, ptr %4, align 4, !tbaa !8
  br label %150

65:                                               ; preds = %16
  %66 = load ptr, ptr %3, align 8, !tbaa !3
  %67 = call i32 @ssl_tls13_write_server_certificate(ptr noundef %66)
  store i32 %67, ptr %4, align 4, !tbaa !8
  br label %150

68:                                               ; preds = %16
  %69 = load ptr, ptr %3, align 8, !tbaa !3
  %70 = call i32 @ssl_tls13_write_certificate_verify(ptr noundef %69)
  store i32 %70, ptr %4, align 4, !tbaa !8
  br label %150

71:                                               ; preds = %16
  %72 = load ptr, ptr %3, align 8, !tbaa !3
  %73 = call i32 @mbedtls_ssl_tls13_write_change_cipher_spec(ptr noundef %72)
  store i32 %73, ptr %4, align 4, !tbaa !8
  %74 = load i32, ptr %4, align 4, !tbaa !8
  %75 = icmp eq i32 %74, 0
  br i1 %75, label %76, label %78

76:                                               ; preds = %71
  %77 = load ptr, ptr %3, align 8, !tbaa !3
  call void @mbedtls_ssl_handshake_set_state(ptr noundef %77, i32 noundef 1)
  br label %78

78:                                               ; preds = %76, %71
  br label %150

79:                                               ; preds = %16
  %80 = load ptr, ptr %3, align 8, !tbaa !3
  %81 = call i32 @mbedtls_ssl_tls13_write_change_cipher_spec(ptr noundef %80)
  store i32 %81, ptr %4, align 4, !tbaa !8
  %82 = load i32, ptr %4, align 4, !tbaa !8
  %83 = icmp ne i32 %82, 0
  br i1 %83, label %84, label %85

84:                                               ; preds = %79
  br label %150

85:                                               ; preds = %79
  %86 = load ptr, ptr %3, align 8, !tbaa !3
  call void @mbedtls_ssl_handshake_set_state(ptr noundef %86, i32 noundef 19)
  br label %150

87:                                               ; preds = %16
  %88 = load ptr, ptr %3, align 8, !tbaa !3
  %89 = call i32 @ssl_tls13_write_server_finished(ptr noundef %88)
  store i32 %89, ptr %4, align 4, !tbaa !8
  br label %150

90:                                               ; preds = %16
  %91 = load ptr, ptr %3, align 8, !tbaa !3
  %92 = call i32 @ssl_tls13_process_client_finished(ptr noundef %91)
  store i32 %92, ptr %4, align 4, !tbaa !8
  br label %150

93:                                               ; preds = %16
  %94 = load ptr, ptr %3, align 8, !tbaa !3
  %95 = call i32 @ssl_tls13_handshake_wrapup(ptr noundef %94)
  store i32 %95, ptr %4, align 4, !tbaa !8
  br label %150

96:                                               ; preds = %16
  %97 = load ptr, ptr %3, align 8, !tbaa !3
  %98 = call i32 @mbedtls_ssl_tls13_process_certificate(ptr noundef %97)
  store i32 %98, ptr %4, align 4, !tbaa !8
  %99 = load i32, ptr %4, align 4, !tbaa !8
  %100 = icmp eq i32 %99, 0
  br i1 %100, label %101, label %114

101:                                              ; preds = %96
  %102 = load ptr, ptr %3, align 8, !tbaa !3
  %103 = getelementptr inbounds nuw %struct.mbedtls_ssl_context, ptr %102, i32 0, i32 15
  %104 = load ptr, ptr %103, align 8, !tbaa !20
  %105 = getelementptr inbounds nuw %struct.mbedtls_ssl_session, ptr %104, i32 0, i32 9
  %106 = load ptr, ptr %105, align 8, !tbaa !21
  %107 = icmp ne ptr %106, null
  br i1 %107, label %108, label %110

108:                                              ; preds = %101
  %109 = load ptr, ptr %3, align 8, !tbaa !3
  call void @mbedtls_ssl_handshake_set_state(ptr noundef %109, i32 noundef 21)
  br label %113

110:                                              ; preds = %101
  %111 = load ptr, ptr %3, align 8, !tbaa !3
  call void (ptr, i32, ptr, i32, ptr, ...) @mbedtls_debug_print_msg(ptr noundef %111, i32 noundef 2, ptr noundef @.str, i32 noundef 3558, ptr noundef @.str.5)
  %112 = load ptr, ptr %3, align 8, !tbaa !3
  call void @mbedtls_ssl_handshake_set_state(ptr noundef %112, i32 noundef 11)
  br label %113

113:                                              ; preds = %110, %108
  br label %114

114:                                              ; preds = %113, %96
  br label %150

115:                                              ; preds = %16
  %116 = load ptr, ptr %3, align 8, !tbaa !3
  %117 = call i32 @mbedtls_ssl_tls13_process_certificate_verify(ptr noundef %116)
  store i32 %117, ptr %4, align 4, !tbaa !8
  %118 = load i32, ptr %4, align 4, !tbaa !8
  %119 = icmp eq i32 %118, 0
  br i1 %119, label %120, label %122

120:                                              ; preds = %115
  %121 = load ptr, ptr %3, align 8, !tbaa !3
  call void @mbedtls_ssl_handshake_set_state(ptr noundef %121, i32 noundef 11)
  br label %122

122:                                              ; preds = %120, %115
  br label %150

123:                                              ; preds = %16
  %124 = load ptr, ptr %3, align 8, !tbaa !3
  %125 = call i32 @ssl_tls13_write_new_session_ticket(ptr noundef %124)
  store i32 %125, ptr %4, align 4, !tbaa !8
  %126 = load i32, ptr %4, align 4, !tbaa !8
  %127 = icmp ne i32 %126, 0
  br i1 %127, label %128, label %131

128:                                              ; preds = %123
  %129 = load ptr, ptr %3, align 8, !tbaa !3
  %130 = load i32, ptr %4, align 4, !tbaa !8
  call void @mbedtls_debug_print_ret(ptr noundef %129, i32 noundef 1, ptr noundef @.str, i32 noundef 3580, ptr noundef @.str.6, i32 noundef %130)
  br label %131

131:                                              ; preds = %128, %123
  br label %150

132:                                              ; preds = %16
  store i32 0, ptr %4, align 4, !tbaa !8
  %133 = load ptr, ptr %3, align 8, !tbaa !3
  %134 = getelementptr inbounds nuw %struct.mbedtls_ssl_context, ptr %133, i32 0, i32 16
  %135 = load ptr, ptr %134, align 8, !tbaa !19
  %136 = getelementptr inbounds nuw %struct.mbedtls_ssl_handshake_params, ptr %135, i32 0, i32 20
  %137 = load i16, ptr %136, align 2, !tbaa !25
  %138 = zext i16 %137 to i32
  %139 = icmp eq i32 %138, 0
  br i1 %139, label %140, label %142

140:                                              ; preds = %132
  %141 = load ptr, ptr %3, align 8, !tbaa !3
  call void @mbedtls_ssl_handshake_set_state(ptr noundef %141, i32 noundef 27)
  br label %144

142:                                              ; preds = %132
  %143 = load ptr, ptr %3, align 8, !tbaa !3
  call void @mbedtls_ssl_handshake_set_state(ptr noundef %143, i32 noundef 28)
  br label %144

144:                                              ; preds = %142, %140
  br label %150

145:                                              ; preds = %16
  %146 = load ptr, ptr %3, align 8, !tbaa !3
  %147 = load ptr, ptr %3, align 8, !tbaa !3
  %148 = getelementptr inbounds nuw %struct.mbedtls_ssl_context, ptr %147, i32 0, i32 1
  %149 = load i32, ptr %148, align 8, !tbaa !10
  call void (ptr, i32, ptr, i32, ptr, ...) @mbedtls_debug_print_msg(ptr noundef %146, i32 noundef 1, ptr noundef @.str, i32 noundef 3601, ptr noundef @.str.7, i32 noundef %149)
  store i32 -28800, ptr %2, align 4
  store i32 1, ptr %5, align 4
  br label %152

150:                                              ; preds = %144, %131, %122, %114, %93, %90, %87, %85, %84, %78, %68, %65, %62, %61, %49, %48, %38, %28
  %151 = load i32, ptr %4, align 4, !tbaa !8
  store i32 %151, ptr %2, align 4
  store i32 1, ptr %5, align 4
  br label %152

152:                                              ; preds = %150, %145, %57, %44, %15
  call void @llvm.lifetime.end.p0(i64 4, ptr %4) #10
  %153 = load i32, ptr %2, align 4
  ret i32 %153
}