; Function Attrs: nounwind uwtable
define hidden i32 @mbedtls_ssl_tls13_handshake_server_step(ptr noundef %0) local_unnamed_addr #0 {
  %2 = getelementptr inbounds nuw i8, ptr %0, i64 8
  %3 = load i32, ptr %2, align 8, !tbaa !3
  %4 = icmp eq i32 %3, 27
  br i1 %4, label %ssl_tls13_write_certificate_verify.exit, label %5

5:                                                ; preds = %1
  %6 = getelementptr inbounds nuw i8, ptr %0, i64 112
  %7 = load ptr, ptr %6, align 8, !tbaa !16
  %8 = icmp eq ptr %7, null
  br i1 %8, label %ssl_tls13_write_certificate_verify.exit, label %9

9:                                                ; preds = %5
  %10 = tail call ptr @mbedtls_ssl_states_str(i32 noundef %3) #9
  %11 = load i32, ptr %2, align 8, !tbaa !3
  tail call void (ptr, i32, ptr, i32, ptr, ...) @mbedtls_debug_print_msg(ptr noundef nonnull %0, i32 noundef 2, ptr noundef nonnull @.str, i32 noundef 3462, ptr noundef nonnull @.str.1, ptr noundef %10, i32 noundef %11) #9
  %12 = load i32, ptr %2, align 8, !tbaa !3
  switch i32 %12, label %68 [
    i32 0, label %13
    i32 1, label %14
    i32 18, label %17
    i32 2, label %20
    i32 19, label %22
    i32 5, label %25
    i32 3, label %27
    i32 9, label %29
    i32 26, label %32
    i32 24, label %36
    i32 13, label %39
    i32 11, label %41
    i32 15, label %43
    i32 7, label %44
    i32 21, label %54
    i32 28, label %58
    i32 29, label %61
  ]

13:                                               ; preds = %9
  store i32 1, ptr %2, align 8, !tbaa !3
  br label %ssl_tls13_write_certificate_verify.exit

14:                                               ; preds = %9
  %15 = tail call fastcc i32 @ssl_tls13_process_client_hello(ptr noundef nonnull %0)
  %.not74 = icmp eq i32 %15, 0
  br i1 %.not74, label %ssl_tls13_write_certificate_verify.exit, label %16

16:                                               ; preds = %14
  tail call void @mbedtls_debug_print_ret(ptr noundef nonnull %0, i32 noundef 1, ptr noundef nonnull @.str, i32 noundef 3474, ptr noundef nonnull @.str.2, i32 noundef %15) #9
  br label %ssl_tls13_write_certificate_verify.exit

17:                                               ; preds = %9
  %18 = tail call fastcc i32 @ssl_tls13_write_hello_retry_request(ptr noundef nonnull %0)
  %.not73 = icmp eq i32 %18, 0
  br i1 %.not73, label %ssl_tls13_write_certificate_verify.exit, label %19

19:                                               ; preds = %17
  tail call void @mbedtls_debug_print_ret(ptr noundef nonnull %0, i32 noundef 1, ptr noundef nonnull @.str, i32 noundef 3481, ptr noundef nonnull @.str.3, i32 noundef %18) #9
  br label %ssl_tls13_write_certificate_verify.exit

20:                                               ; preds = %9
  %21 = tail call fastcc i32 @ssl_tls13_write_server_hello(ptr noundef nonnull %0)
  br label %ssl_tls13_write_certificate_verify.exit

22:                                               ; preds = %9
  %23 = tail call fastcc i32 @ssl_tls13_write_encrypted_extensions(ptr noundef nonnull %0)
  %.not72 = icmp eq i32 %23, 0
  br i1 %.not72, label %ssl_tls13_write_certificate_verify.exit, label %24

24:                                               ; preds = %22
  tail call void @mbedtls_debug_print_ret(ptr noundef nonnull %0, i32 noundef 1, ptr noundef nonnull @.str, i32 noundef 3493, ptr noundef nonnull @.str.4, i32 noundef %23) #9
  br label %ssl_tls13_write_certificate_verify.exit

25:                                               ; preds = %9
  %26 = tail call fastcc i32 @ssl_tls13_write_certificate_request(ptr noundef nonnull %0)
  br label %ssl_tls13_write_certificate_verify.exit

27:                                               ; preds = %9
  %28 = tail call fastcc i32 @ssl_tls13_write_server_certificate(ptr noundef nonnull %0)
  br label %ssl_tls13_write_certificate_verify.exit

29:                                               ; preds = %9
  %30 = tail call i32 @mbedtls_ssl_tls13_write_certificate_verify(ptr noundef nonnull %0) #9
  %.not.i = icmp eq i32 %30, 0
  br i1 %.not.i, label %31, label %ssl_tls13_write_certificate_verify.exit

31:                                               ; preds = %29
  store i32 13, ptr %2, align 8, !tbaa !3
  br label %ssl_tls13_write_certificate_verify.exit

32:                                               ; preds = %9
  %33 = tail call i32 @mbedtls_ssl_tls13_write_change_cipher_spec(ptr noundef nonnull %0) #9
  %34 = icmp eq i32 %33, 0
  br i1 %34, label %35, label %ssl_tls13_write_certificate_verify.exit

35:                                               ; preds = %32
  store i32 1, ptr %2, align 8, !tbaa !3
  br label %ssl_tls13_write_certificate_verify.exit

36:                                               ; preds = %9
  %37 = tail call i32 @mbedtls_ssl_tls13_write_change_cipher_spec(ptr noundef nonnull %0) #9
  %.not71 = icmp eq i32 %37, 0
  br i1 %.not71, label %38, label %ssl_tls13_write_certificate_verify.exit

38:                                               ; preds = %36
  store i32 19, ptr %2, align 8, !tbaa !3
  br label %ssl_tls13_write_certificate_verify.exit

39:                                               ; preds = %9
  %40 = tail call fastcc i32 @ssl_tls13_write_server_finished(ptr noundef nonnull %0)
  br label %ssl_tls13_write_certificate_verify.exit

41:                                               ; preds = %9
  %42 = tail call fastcc i32 @ssl_tls13_process_client_finished(ptr noundef nonnull %0)
  br label %ssl_tls13_write_certificate_verify.exit

43:                                               ; preds = %9
  tail call fastcc void @ssl_tls13_handshake_wrapup(ptr noundef nonnull %0)
  br label %ssl_tls13_write_certificate_verify.exit

44:                                               ; preds = %9
  %45 = tail call i32 @mbedtls_ssl_tls13_process_certificate(ptr noundef nonnull %0) #9
  %46 = icmp eq i32 %45, 0
  br i1 %46, label %47, label %ssl_tls13_write_certificate_verify.exit

47:                                               ; preds = %44
  %48 = getelementptr inbounds nuw i8, ptr %0, i64 104
  %49 = load ptr, ptr %48, align 8, !tbaa !17
  %50 = getelementptr inbounds nuw i8, ptr %49, i64 112
  %51 = load ptr, ptr %50, align 8, !tbaa !18
  %.not70 = icmp eq ptr %51, null
  br i1 %.not70, label %53, label %52

52:                                               ; preds = %47
  store i32 21, ptr %2, align 8, !tbaa !3
  br label %ssl_tls13_write_certificate_verify.exit

53:                                               ; preds = %47
  tail call void (ptr, i32, ptr, i32, ptr, ...) @mbedtls_debug_print_msg(ptr noundef nonnull %0, i32 noundef 2, ptr noundef nonnull @.str, i32 noundef 3558, ptr noundef nonnull @.str.5) #9
  store i32 11, ptr %2, align 8, !tbaa !3
  br label %ssl_tls13_write_certificate_verify.exit

54:                                               ; preds = %9
  %55 = tail call i32 @mbedtls_ssl_tls13_process_certificate_verify(ptr noundef nonnull %0) #9
  %56 = icmp eq i32 %55, 0
  br i1 %56, label %57, label %ssl_tls13_write_certificate_verify.exit

57:                                               ; preds = %54
  store i32 11, ptr %2, align 8, !tbaa !3
  br label %ssl_tls13_write_certificate_verify.exit

58:                                               ; preds = %9
  %59 = tail call fastcc i32 @ssl_tls13_write_new_session_ticket(ptr noundef nonnull %0)
  %.not = icmp eq i32 %59, 0
  br i1 %.not, label %ssl_tls13_write_certificate_verify.exit, label %60

60:                                               ; preds = %58
  tail call void @mbedtls_debug_print_ret(ptr noundef nonnull %0, i32 noundef 1, ptr noundef nonnull @.str, i32 noundef 3580, ptr noundef nonnull @.str.6, i32 noundef %59) #9
  br label %ssl_tls13_write_certificate_verify.exit

61:                                               ; preds = %9
  %62 = load ptr, ptr %6, align 8, !tbaa !16
  %63 = getelementptr inbounds nuw i8, ptr %62, i64 62
  %64 = load i16, ptr %63, align 2, !tbaa !22
  %65 = icmp eq i16 %64, 0
  br i1 %65, label %66, label %67

66:                                               ; preds = %61
  store i32 27, ptr %2, align 8, !tbaa !3
  br label %ssl_tls13_write_certificate_verify.exit

67:                                               ; preds = %61
  store i32 28, ptr %2, align 8, !tbaa !3
  br label %ssl_tls13_write_certificate_verify.exit

68:                                               ; preds = %9
  tail call void (ptr, i32, ptr, i32, ptr, ...) @mbedtls_debug_print_msg(ptr noundef nonnull %0, i32 noundef 1, ptr noundef nonnull @.str, i32 noundef 3601, ptr noundef nonnull @.str.7, i32 noundef %12) #9
  br label %ssl_tls13_write_certificate_verify.exit

ssl_tls13_write_certificate_verify.exit:          ; preds = %31, %29, %13, %20, %25, %27, %38, %39, %41, %43, %16, %14, %17, %22, %35, %32, %36, %52, %53, %44, %57, %54, %60, %58, %67, %66, %1, %5, %68, %24, %19
  %.053 = phi i32 [ -28800, %68 ], [ %23, %24 ], [ %18, %19 ], [ -28928, %5 ], [ -28928, %1 ], [ 0, %66 ], [ 0, %67 ], [ %59, %60 ], [ 0, %58 ], [ 0, %57 ], [ %55, %54 ], [ 0, %52 ], [ 0, %53 ], [ %45, %44 ], [ 0, %43 ], [ %42, %41 ], [ %40, %39 ], [ %37, %36 ], [ 0, %38 ], [ 0, %35 ], [ %33, %32 ], [ %28, %27 ], [ %26, %25 ], [ 0, %22 ], [ %21, %20 ], [ 0, %17 ], [ %15, %16 ], [ 0, %14 ], [ 0, %13 ], [ %30, %29 ], [ 0, %31 ]
  ret i32 %.053
}